; Function Attrs: mustprogress nofree norecurse nosync nounwind willreturn memory(argmem: read) uwtable
define noundef ptr @_ZN5boost7process2v211environment6detail8find_endEPKPKc(ptr noundef readonly %0) local_unnamed_addr #11 {
  br label %2

2:                                                ; preds = %2, %1
  %.0 = phi ptr [ %0, %1 ], [ %4, %2 ]
  %3 = load ptr, ptr %.0, align 8, !tbaa !16
  %.not = icmp eq ptr %3, null
  %4 = getelementptr inbounds nuw i8, ptr %.0, i64 8
  br i1 %.not, label %5, label %2, !llvm.loop !18

5:                                                ; preds = %2
  ret ptr %.0
}